target datalayout = "e-m:e-p270:32:32-p271:32:32-p272:64:64-i64:64-i128:128-f80:128-n8:16:32:64-S128"
target triple = "x86_64-pc-linux-gnu"

%struct.lxb_html_tokenizer = type { ptr, ptr, ptr, ptr, ptr, ptr, ptr, ptr, ptr, ptr, ptr, ptr, ptr, ptr, ptr, i64, ptr, ptr, ptr, ptr, ptr, i64, i64, ptr, ptr, i64, i64, i32, i32, i8, i32, i32, i8, ptr, i64 }

; Function Attrs: nounwind uwtable
define internal ptr @lxb_html_tokenizer_state_char_ref_hexademical_start(ptr noundef %0, ptr noundef %1, ptr noundef %2) #0 {
  %4 = alloca ptr, align 8
  %5 = alloca ptr, align 8
  %6 = alloca ptr, align 8
  store ptr %0, ptr %4, align 8
  store ptr %1, ptr %5, align 8
  store ptr %2, ptr %6, align 8
  %7 = load ptr, ptr %5, align 8
  %8 = load i8, ptr %7, align 1
  %9 = zext i8 %8 to i64
  %10 = getelementptr inbounds [256 x i8], ptr @lexbor_str_res_map_hex, i64 0, i64 %9
  %11 = load i8, ptr %10, align 1
  %12 = zext i8 %11 to i32
  %13 = icmp ne i32 %12, 255
  br i1 %13, label %14, label %17

14:                                               ; preds = %3
  %15 = load ptr, ptr %4, align 8
  %16 = getelementptr inbounds %struct.lxb_html_tokenizer, ptr %15, i32 0, i32 0
  store ptr @lxb_html_tokenizer_state_char_ref_hexademical, ptr %16, align 8
  br label %28

17:                                               ; preds = %3
  %18 = load ptr, ptr %4, align 8
  %19 = getelementptr inbounds %struct.lxb_html_tokenizer, ptr %18, i32 0, i32 11
  %20 = load ptr, ptr %19, align 8
  %21 = load ptr, ptr %5, align 8
  %22 = call ptr @lxb_html_tokenizer_error_add(ptr noundef %20, ptr noundef %21, i32 noundef 3)
  %23 = load ptr, ptr %4, align 8
  %24 = getelementptr inbounds %struct.lxb_html_tokenizer, ptr %23, i32 0, i32 1
  %25 = load ptr, ptr %24, align 8
  %26 = load ptr, ptr %4, align 8
  %27 = getelementptr inbounds %struct.lxb_html_tokenizer, ptr %26, i32 0, i32 0
  store ptr %25, ptr %27, align 8
  br label %28

28:                                               ; preds = %17, %14
  %29 = load ptr, ptr %5, align 8
  ret ptr %29
}