; Function Attrs: nounwind uwtable
define internal noundef ptr @lxb_html_tokenizer_state_char_ref_hexademical_start(ptr nocapture noundef %0, ptr noundef returned %1, ptr nocapture readnone %2) #1 {
  %4 = load i8, ptr %1, align 1
  %5 = zext i8 %4 to i64
  %6 = getelementptr inbounds [256 x i8], ptr @lexbor_str_res_map_hex, i64 0, i64 %5
  %7 = load i8, ptr %6, align 1
  %.not = icmp eq i8 %7, -1
  br i1 %.not, label %8, label %14

8:                                                ; preds = %3
  %9 = getelementptr inbounds i8, ptr %0, i64 88
  %10 = load ptr, ptr %9, align 8
  %11 = tail call ptr @lxb_html_tokenizer_error_add(ptr noundef %10, ptr noundef nonnull %1, i32 noundef 3) #5
  %12 = getelementptr inbounds i8, ptr %0, i64 8
  %13 = load ptr, ptr %12, align 8
  br label %14

14:                                               ; preds = %3, %8
  %storemerge = phi ptr [ %13, %8 ], [ @lxb_html_tokenizer_state_char_ref_hexademical, %3 ]
  store ptr %storemerge, ptr %0, align 8
  ret ptr %1
}